; Function Attrs: nounwind sspstrong uwtable
define internal range(i32 -22, 1) i32 @ivshmem_pre_load(ptr noundef readonly captures(none) %opaque) #0 {
entry:
  %0 = getelementptr i8, ptr %opaque, i64 3300
  %opaque.val = load i32, ptr %0, align 4
  switch i32 %opaque.val, label %if.then [
    i32 0, label %if.else.i
    i32 1, label %return
  ]

if.else.i:                                        ; preds = %entry
  tail call void @__assert_fail(ptr noundef nonnull @.str.31, ptr noundef nonnull @.str.7, i32 noundef 137, ptr noundef nonnull @__PRETTY_FUNCTION__.ivshmem_is_master) #12
  unreachable

if.then:                                          ; preds = %entry
  tail call void (ptr, ...) @error_report(ptr noundef nonnull @.str.48) #11
  br label %return

return:                                           ; preds = %entry, %if.then
  %retval.0 = phi i32 [ -22, %if.then ], [ 0, %entry ]
  ret i32 %retval.0
}